; Function Attrs: mustprogress nounwind uwtable
define dso_local { ptr, i64 } @_ZNKSt3__14__fs10filesystem4path16__root_directoryEv(ptr noundef nonnull align 8 dereferenceable(24) %0) local_unnamed_addr #2 align 2 personality ptr @__gxx_personality_v0 {
  %2 = alloca %"struct.std::__1::__fs::filesystem::parser::PathParser", align 8
  call void @llvm.lifetime.start.p0(i64 40, ptr nonnull %2) #19
  %3 = load i8, ptr %0, align 8
  %4 = and i8 %3, 1
  %.not.i.i.i = icmp eq i8 %4, 0
  %5 = getelementptr inbounds nuw i8, ptr %0, i64 16
  %6 = load ptr, ptr %5, align 8
  %7 = getelementptr inbounds nuw i8, ptr %0, i64 1
  %8 = select i1 %.not.i.i.i, ptr %7, ptr %6
  %9 = getelementptr inbounds nuw i8, ptr %0, i64 8
  %10 = load i64, ptr %9, align 8
  %11 = lshr i8 %3, 1
  %12 = zext nneg i8 %11 to i64
  %13 = select i1 %.not.i.i.i, i64 %12, i64 %10
  store ptr %8, ptr %2, align 8, !tbaa !13, !alias.scope !25
  %.sroa.2.0..sroa_idx.i.i = getelementptr inbounds nuw i8, ptr %2, i64 8
  store i64 %13, ptr %.sroa.2.0..sroa_idx.i.i, align 8, !tbaa !19, !alias.scope !25
  %14 = getelementptr inbounds nuw i8, ptr %2, i64 16
  call void @llvm.memset.p0.i64(ptr noundef nonnull align 8 dereferenceable(16) %14, i8 0, i64 16, i1 false), !alias.scope !25
  %15 = getelementptr inbounds nuw i8, ptr %2, i64 32
  store i8 1, ptr %15, align 8, !tbaa !21, !alias.scope !25
  call void @_ZNSt3__14__fs10filesystem6parser10PathParser9incrementB8ne210000Ev(ptr noundef nonnull align 8 dereferenceable(33) %2) #19
  %16 = load i8, ptr %15, align 8, !tbaa !21
  %17 = icmp eq i8 %16, 2
  br i1 %17, label %18, label %19

18:                                               ; preds = %1
  call void @_ZNSt3__14__fs10filesystem6parser10PathParser9incrementB8ne210000Ev(ptr noundef nonnull align 8 dereferenceable(33) %2) #19
  %.pr = load i8, ptr %15, align 8, !tbaa !21
  br label %19

19:                                               ; preds = %18, %1
  %20 = phi i8 [ %.pr, %18 ], [ %16, %1 ]
  %21 = icmp eq i8 %20, 3
  br i1 %21, label %_ZNKSt3__14__fs10filesystem6parser10PathParserdeB8ne210000Ev.exit, label %25

_ZNKSt3__14__fs10filesystem6parser10PathParserdeB8ne210000Ev.exit: ; preds = %19
  %22 = load ptr, ptr %14, align 8, !tbaa !28
  %23 = load i8, ptr %22, align 1, !tbaa !4
  %24 = icmp eq i8 %23, 92
  %.str.5..str.3.i = select i1 %24, ptr @.str.5, ptr @.str.3
  br label %25

25:                                               ; preds = %19, %_ZNKSt3__14__fs10filesystem6parser10PathParserdeB8ne210000Ev.exit
  %.sroa.0.0 = phi ptr [ %.str.5..str.3.i, %_ZNKSt3__14__fs10filesystem6parser10PathParserdeB8ne210000Ev.exit ], [ null, %19 ]
  %.sroa.3.0 = phi i64 [ 1, %_ZNKSt3__14__fs10filesystem6parser10PathParserdeB8ne210000Ev.exit ], [ 0, %19 ]
  call void @llvm.lifetime.end.p0(i64 40, ptr nonnull %2) #19
  %.fca.0.insert = insertvalue { ptr, i64 } poison, ptr %.sroa.0.0, 0
  %.fca.1.insert = insertvalue { ptr, i64 } %.fca.0.insert, i64 %.sroa.3.0, 1
  ret { ptr, i64 } %.fca.1.insert
}